target datalayout = "e-m:e-p270:32:32-p271:32:32-p272:64:64-i64:64-i128:128-f80:128-n8:16:32:64-S128"
target triple = "x86_64-pc-linux-gnu"

@.str = private unnamed_addr constant [25 x i8] c"%lu-%2.2lu:%2.2lu:%2.2lu\00", align 1
@.str.1 = private unnamed_addr constant [21 x i8] c"%2.2lu:%2.2lu:%2.2lu\00", align 1
@.str.2 = private unnamed_addr constant [21 x i8] c"%2.2lu:%2.2lu.%3.3lu\00", align 1
@.str.3 = private unnamed_addr constant [17 x i8] c"00:%2.2lu:%2.2lu\00", align 1

; Function Attrs: nounwind uwtable
define dso_local ptr @_elapsed_time(i64 noundef %0, i64 noundef %1) #0 {
  %3 = alloca ptr, align 8
  %4 = alloca i64, align 8
  %5 = alloca i64, align 8
  %6 = alloca i64, align 8
  %7 = alloca i64, align 8
  %8 = alloca i64, align 8
  %9 = alloca i64, align 8
  %10 = alloca i64, align 8
  %11 = alloca ptr, align 8
  %12 = alloca i32, align 4
  store i64 %0, ptr %4, align 8
  store i64 %1, ptr %5, align 8
  call void @llvm.lifetime.start.p0(i64 8, ptr %6) #5
  call void @llvm.lifetime.start.p0(i64 8, ptr %7) #5
  call void @llvm.lifetime.start.p0(i64 8, ptr %8) #5
  call void @llvm.lifetime.start.p0(i64 8, ptr %9) #5
  call void @llvm.lifetime.start.p0(i64 8, ptr %10) #5
  store i64 0, ptr %10, align 8
  call void @llvm.lifetime.start.p0(i64 8, ptr %11) #5
  store ptr null, ptr %11, align 8
  %13 = load i64, ptr %4, align 8
  %14 = icmp eq i64 %13, -2
  br i1 %14, label %15, label %16

15:                                               ; preds = %2
  store ptr null, ptr %3, align 8
  store i32 1, ptr %12, align 4
  br label %79

16:                                               ; preds = %2
  %17 = load i64, ptr %5, align 8
  %18 = uitofp i64 %17 to double
  %19 = fcmp oge double %18, 1.000000e+06
  br i1 %19, label %20, label %30

20:                                               ; preds = %16
  %21 = load i64, ptr %5, align 8
  %22 = uitofp i64 %21 to double
  %23 = fdiv double %22, 1.000000e+06
  %24 = load i64, ptr %4, align 8
  %25 = uitofp i64 %24 to double
  %26 = fadd double %25, %23
  %27 = fptoui double %26 to i64
  store i64 %27, ptr %4, align 8
  %28 = load i64, ptr %5, align 8
  %29 = urem i64 %28, 1000000
  store i64 %29, ptr %5, align 8
  br label %30

30:                                               ; preds = %20, %16
  %31 = load i64, ptr %5, align 8
  %32 = icmp ugt i64 %31, 0
  br i1 %32, label %33, label %36

33:                                               ; preds = %30
  %34 = load i64, ptr %5, align 8
  %35 = udiv i64 %34, 1000
  store i64 %35, ptr %10, align 8
  br label %36

36:                                               ; preds = %33, %30
  %37 = load i64, ptr %4, align 8
  %38 = urem i64 %37, 60
  store i64 %38, ptr %9, align 8
  %39 = load i64, ptr %4, align 8
  %40 = udiv i64 %39, 60
  %41 = urem i64 %40, 60
  store i64 %41, ptr %8, align 8
  %42 = load i64, ptr %4, align 8
  %43 = udiv i64 %42, 3600
  %44 = urem i64 %43, 24
  store i64 %44, ptr %7, align 8
  %45 = load i64, ptr %4, align 8
  %46 = udiv i64 %45, 86400
  store i64 %46, ptr %6, align 8
  %47 = load i64, ptr %6, align 8
  %48 = icmp ne i64 %47, 0
  br i1 %48, label %49, label %55

49:                                               ; preds = %36
  %50 = load i64, ptr %6, align 8
  %51 = load i64, ptr %7, align 8
  %52 = load i64, ptr %8, align 8
  %53 = load i64, ptr %9, align 8
  %54 = call ptr (ptr, ...) @xstrdup_printf(ptr noundef @.str, i64 noundef %50, i64 noundef %51, i64 noundef %52, i64 noundef %53)
  store ptr %54, ptr %11, align 8
  br label %77

55:                                               ; preds = %36
  %56 = load i64, ptr %7, align 8
  %57 = icmp ne i64 %56, 0
  br i1 %57, label %58, label %63

58:                                               ; preds = %55
  %59 = load i64, ptr %7, align 8
  %60 = load i64, ptr %8, align 8
  %61 = load i64, ptr %9, align 8
  %62 = call ptr (ptr, ...) @xstrdup_printf(ptr noundef @.str.1, i64 noundef %59, i64 noundef %60, i64 noundef %61)
  store ptr %62, ptr %11, align 8
  br label %76

63:                                               ; preds = %55
  %64 = load i64, ptr %10, align 8
  %65 = icmp ne i64 %64, 0
  br i1 %65, label %66, label %71

66:                                               ; preds = %63
  %67 = load i64, ptr %8, align 8
  %68 = load i64, ptr %9, align 8
  %69 = load i64, ptr %10, align 8
  %70 = call ptr (ptr, ...) @xstrdup_printf(ptr noundef @.str.2, i64 noundef %67, i64 noundef %68, i64 noundef %69)
  store ptr %70, ptr %11, align 8
  br label %75

71:                                               ; preds = %63
  %72 = load i64, ptr %8, align 8
  %73 = load i64, ptr %9, align 8
  %74 = call ptr (ptr, ...) @xstrdup_printf(ptr noundef @.str.3, i64 noundef %72, i64 noundef %73)
  store ptr %74, ptr %11, align 8
  br label %75

75:                                               ; preds = %71, %66
  br label %76

76:                                               ; preds = %75, %58
  br label %77

77:                                               ; preds = %76, %49
  %78 = load ptr, ptr %11, align 8
  store ptr %78, ptr %3, align 8
  store i32 1, ptr %12, align 4
  br label %79

79:                                               ; preds = %77, %15
  call void @llvm.lifetime.end.p0(i64 8, ptr %11) #5
  call void @llvm.lifetime.end.p0(i64 8, ptr %10) #5
  call void @llvm.lifetime.end.p0(i64 8, ptr %9) #5
  call void @llvm.lifetime.end.p0(i64 8, ptr %8) #5
  call void @llvm.lifetime.end.p0(i64 8, ptr %7) #5
  call void @llvm.lifetime.end.p0(i64 8, ptr %6) #5
  %80 = load ptr, ptr %3, align 8
  ret ptr %80
}