; Function Attrs: nounwind uwtable
define dso_local ptr @_elapsed_time(i64 noundef %0, i64 noundef %1) local_unnamed_addr #0 {
  %3 = icmp eq i64 %0, -2
  br i1 %3, label %31, label %4

4:                                                ; preds = %2
  %5 = icmp ugt i64 %1, 999999
  br i1 %5, label %6, label %13

6:                                                ; preds = %4
  %7 = uitofp i64 %1 to double
  %8 = fdiv double %7, 1.000000e+06
  %9 = uitofp i64 %0 to double
  %10 = fadd double %8, %9
  %11 = fptoui double %10 to i64
  %12 = urem i64 %1, 1000000
  br label %13

13:                                               ; preds = %6, %4
  %.030 = phi i64 [ %12, %6 ], [ %1, %4 ]
  %.029 = phi i64 [ %11, %6 ], [ %0, %4 ]
  %.lhs.trunc = trunc nuw i64 %.030 to i32
  %14 = udiv i32 %.lhs.trunc, 1000
  %.zext = zext nneg i32 %14 to i64
  %15 = urem i64 %.029, 60
  %16 = udiv i64 %.029, 60
  %17 = urem i64 %16, 60
  %18 = udiv i64 %.029, 3600
  %19 = urem i64 %18, 24
  %.not35 = icmp ult i64 %.029, 86400
  br i1 %.not35, label %23, label %20

20:                                               ; preds = %13
  %21 = udiv i64 %.029, 86400
  %22 = tail call ptr (ptr, ...) @xstrdup_printf(ptr noundef nonnull @.str, i64 noundef %21, i64 noundef %19, i64 noundef %17, i64 noundef %15) #7
  br label %31

23:                                               ; preds = %13
  %.not36 = icmp eq i64 %19, 0
  br i1 %.not36, label %26, label %24

24:                                               ; preds = %23
  %25 = tail call ptr (ptr, ...) @xstrdup_printf(ptr noundef nonnull @.str.1, i64 noundef %19, i64 noundef %17, i64 noundef %15) #7
  br label %31

26:                                               ; preds = %23
  %.not37 = icmp samesign ult i64 %.030, 1000
  br i1 %.not37, label %29, label %27

27:                                               ; preds = %26
  %28 = tail call ptr (ptr, ...) @xstrdup_printf(ptr noundef nonnull @.str.2, i64 noundef %17, i64 noundef %15, i64 noundef %.zext) #7
  br label %31

29:                                               ; preds = %26
  %30 = tail call ptr (ptr, ...) @xstrdup_printf(ptr noundef nonnull @.str.3, i64 noundef %17, i64 noundef %15) #7
  br label %31

31:                                               ; preds = %20, %27, %29, %24, %2
  %.028 = phi ptr [ null, %2 ], [ %22, %20 ], [ %25, %24 ], [ %28, %27 ], [ %30, %29 ]
  ret ptr %.028
}